target datalayout = "e-m:e-p270:32:32-p271:32:32-p272:64:64-i64:64-i128:128-f80:128-n8:16:32:64-S128"
target triple = "x86_64-pc-linux-gnu"

%struct.dt_pthread_mutex_t = type { %union.pthread_mutex_t }
%union.pthread_mutex_t = type { %struct.__pthread_mutex_s }
%struct.__pthread_mutex_s = type { i32, i32, i32, i32, i32, i16, i16, %struct.__pthread_internal_list }
%struct.__pthread_internal_list = type { ptr, ptr }
%struct.dt_import_session_t = type { i32, ptr, ptr, ptr, ptr }
%struct.dt_film_t = type { i32, [512 x i8], %struct.dt_pthread_mutex_t, ptr, i32, i32, i32 }

; Function Attrs: nounwind uwtable
define internal void @_import_session_cleanup_filmroll(ptr noundef %0) #0 {
  %2 = alloca ptr, align 8
  store ptr %0, ptr %2, align 8, !tbaa !6
  %3 = load ptr, ptr %2, align 8, !tbaa !6
  %4 = getelementptr inbounds nuw %struct.dt_import_session_t, ptr %3, i32 0, i32 1
  %5 = load ptr, ptr %4, align 8, !tbaa !18
  %6 = icmp eq ptr %5, null
  br i1 %6, label %7, label %8

7:                                                ; preds = %1
  br label %58

8:                                                ; preds = %1
  %9 = load ptr, ptr %2, align 8, !tbaa !6
  %10 = getelementptr inbounds nuw %struct.dt_import_session_t, ptr %9, i32 0, i32 1
  %11 = load ptr, ptr %10, align 8, !tbaa !18
  %12 = getelementptr inbounds nuw %struct.dt_film_t, ptr %11, i32 0, i32 0
  %13 = load i32, ptr %12, align 8, !tbaa !19
  %14 = call i32 @dt_film_is_empty(i32 noundef %13)
  %15 = icmp ne i32 %14, 0
  br i1 %15, label %16, label %49

16:                                               ; preds = %8
  %17 = load ptr, ptr %2, align 8, !tbaa !6
  %18 = getelementptr inbounds nuw %struct.dt_import_session_t, ptr %17, i32 0, i32 1
  %19 = load ptr, ptr %18, align 8, !tbaa !18
  %20 = getelementptr inbounds nuw %struct.dt_film_t, ptr %19, i32 0, i32 0
  %21 = load i32, ptr %20, align 8, !tbaa !19
  call void @dt_film_remove(i32 noundef %21)
  %22 = load ptr, ptr %2, align 8, !tbaa !6
  %23 = getelementptr inbounds nuw %struct.dt_import_session_t, ptr %22, i32 0, i32 3
  %24 = load ptr, ptr %23, align 8, !tbaa !23
  %25 = icmp ne ptr %24, null
  br i1 %25, label %26, label %48

26:                                               ; preds = %16
  %27 = load ptr, ptr %2, align 8, !tbaa !6
  %28 = getelementptr inbounds nuw %struct.dt_import_session_t, ptr %27, i32 0, i32 3
  %29 = load ptr, ptr %28, align 8, !tbaa !23
  %30 = call i32 @g_file_test(ptr noundef %29, i32 noundef 4)
  %31 = icmp ne i32 %30, 0
  br i1 %31, label %32, label %48

32:                                               ; preds = %26
  %33 = load ptr, ptr %2, align 8, !tbaa !6
  %34 = getelementptr inbounds nuw %struct.dt_import_session_t, ptr %33, i32 0, i32 3
  %35 = load ptr, ptr %34, align 8, !tbaa !23
  %36 = call i32 @dt_util_is_dir_empty(ptr noundef %35)
  %37 = icmp ne i32 %36, 0
  br i1 %37, label %38, label %48

38:                                               ; preds = %32
  %39 = load ptr, ptr %2, align 8, !tbaa !6
  %40 = getelementptr inbounds nuw %struct.dt_import_session_t, ptr %39, i32 0, i32 3
  %41 = load ptr, ptr %40, align 8, !tbaa !23
  %42 = call i32 @g_rmdir(ptr noundef %41)
  %43 = load ptr, ptr %2, align 8, !tbaa !6
  %44 = getelementptr inbounds nuw %struct.dt_import_session_t, ptr %43, i32 0, i32 3
  %45 = load ptr, ptr %44, align 8, !tbaa !23
  call void @g_free(ptr noundef %45)
  %46 = load ptr, ptr %2, align 8, !tbaa !6
  %47 = getelementptr inbounds nuw %struct.dt_import_session_t, ptr %46, i32 0, i32 3
  store ptr null, ptr %47, align 8, !tbaa !23
  br label %48

48:                                               ; preds = %38, %32, %26, %16
  br label %49

49:                                               ; preds = %48, %8
  %50 = load ptr, ptr %2, align 8, !tbaa !6
  %51 = getelementptr inbounds nuw %struct.dt_import_session_t, ptr %50, i32 0, i32 1
  %52 = load ptr, ptr %51, align 8, !tbaa !18
  call void @dt_film_cleanup(ptr noundef %52)
  %53 = load ptr, ptr %2, align 8, !tbaa !6
  %54 = getelementptr inbounds nuw %struct.dt_import_session_t, ptr %53, i32 0, i32 1
  %55 = load ptr, ptr %54, align 8, !tbaa !18
  call void @g_free(ptr noundef %55)
  %56 = load ptr, ptr %2, align 8, !tbaa !6
  %57 = getelementptr inbounds nuw %struct.dt_import_session_t, ptr %56, i32 0, i32 1
  store ptr null, ptr %57, align 8, !tbaa !18
  br label %58

58:                                               ; preds = %49, %7
  ret void
}