; Function Attrs: nounwind uwtable
define internal fastcc void @_import_session_cleanup_filmroll(ptr noundef captures(none) %0) unnamed_addr #0 {
  %2 = getelementptr inbounds nuw i8, ptr %0, i64 8
  %3 = load ptr, ptr %2, align 8, !tbaa !16
  %4 = icmp eq ptr %3, null
  br i1 %4, label %25, label %5

5:                                                ; preds = %1
  %6 = load i32, ptr %3, align 8, !tbaa !17
  %7 = tail call i32 @dt_film_is_empty(i32 noundef %6) #9
  %.not = icmp eq i32 %7, 0
  br i1 %.not, label %22, label %8

8:                                                ; preds = %5
  %9 = load ptr, ptr %2, align 8, !tbaa !16
  %10 = load i32, ptr %9, align 8, !tbaa !17
  tail call void @dt_film_remove(i32 noundef %10) #9
  %11 = getelementptr inbounds nuw i8, ptr %0, i64 24
  %12 = load ptr, ptr %11, align 8, !tbaa !21
  %.not13 = icmp eq ptr %12, null
  br i1 %.not13, label %22, label %13

13:                                               ; preds = %8
  %14 = tail call i32 @g_file_test(ptr noundef nonnull %12, i32 noundef 4) #9
  %.not14 = icmp eq i32 %14, 0
  br i1 %.not14, label %22, label %15

15:                                               ; preds = %13
  %16 = load ptr, ptr %11, align 8, !tbaa !21
  %17 = tail call i32 @dt_util_is_dir_empty(ptr noundef %16) #9
  %.not15 = icmp eq i32 %17, 0
  br i1 %.not15, label %22, label %18

18:                                               ; preds = %15
  %19 = load ptr, ptr %11, align 8, !tbaa !21
  %20 = tail call i32 @g_rmdir(ptr noundef %19) #9
  %21 = load ptr, ptr %11, align 8, !tbaa !21
  tail call void @g_free(ptr noundef %21) #9
  store ptr null, ptr %11, align 8, !tbaa !21
  br label %22

22:                                               ; preds = %8, %13, %15, %18, %5
  %23 = load ptr, ptr %2, align 8, !tbaa !16
  tail call void @dt_film_cleanup(ptr noundef %23) #9
  %24 = load ptr, ptr %2, align 8, !tbaa !16
  tail call void @g_free(ptr noundef %24) #9
  store ptr null, ptr %2, align 8, !tbaa !16
  br label %25

25:                                               ; preds = %1, %22
  ret void
}